target datalayout = "e-m:e-p270:32:32-p271:32:32-p272:64:64-i64:64-i128:128-f80:128-n8:16:32:64-S128"
target triple = "x86_64-unknown-linux-gnu"

; Function Attrs: mustprogress uwtable
define dso_local noundef zeroext i1 @_ZN3net14QuicConnection20ShouldGeneratePacketENS_22HasRetransmittableDataENS_11IsHandshakeE(ptr noundef nonnull align 8 dereferenceable(3372) %this, i8 noundef signext %retransmittable, i8 noundef signext %handshake) unnamed_addr #0 align 2 {
entry:
  %retval = alloca i1, align 1
  %this.addr = alloca ptr, align 8
  %retransmittable.addr = alloca i8, align 1
  %handshake.addr = alloca i8, align 1
  store ptr %this, ptr %this.addr, align 8
  store i8 %retransmittable, ptr %retransmittable.addr, align 1
  store i8 %handshake, ptr %handshake.addr, align 1
  %this1 = load ptr, ptr %this.addr, align 8
  %0 = load i8, ptr %handshake.addr, align 1
  %conv = sext i8 %0 to i32
  %cmp = icmp eq i32 %conv, 1
  br i1 %cmp, label %if.then, label %if.end

if.then:                                          ; preds = %entry
  store i1 true, ptr %retval, align 1
  br label %return

if.end:                                           ; preds = %entry
  %1 = load i8, ptr %retransmittable.addr, align 1
  %call = call noundef zeroext i1 @_ZN3net14QuicConnection8CanWriteENS_22HasRetransmittableDataE(ptr noundef nonnull align 8 dereferenceable(3372) %this1, i8 noundef signext %1)
  store i1 %call, ptr %retval, align 1
  br label %return

return:                                           ; preds = %if.end, %if.then
  %2 = load i1, ptr %retval, align 1
  ret i1 %2
}