; Function Attrs: mustprogress uwtable
define dso_local noundef zeroext i1 @_ZN3net14QuicConnection20ShouldGeneratePacketENS_22HasRetransmittableDataENS_11IsHandshakeE(ptr nocapture noundef nonnull readonly align 8 dereferenceable(3372) %this, i8 noundef signext %retransmittable, i8 noundef signext %handshake) unnamed_addr #0 align 2 {
entry:
  %cmp = icmp eq i8 %handshake, 1
  br i1 %cmp, label %return, label %if.end

if.end:                                           ; preds = %entry
  %call = tail call noundef zeroext i1 @_ZN3net14QuicConnection8CanWriteENS_22HasRetransmittableDataE(ptr noundef nonnull align 8 dereferenceable(3372) %this, i8 noundef signext %retransmittable)
  br label %return

return:                                           ; preds = %entry, %if.end
  %retval.0 = phi i1 [ %call, %if.end ], [ true, %entry ]
  ret i1 %retval.0
}